target datalayout = "e-m:e-p270:32:32-p271:32:32-p272:64:64-i64:64-i128:128-f80:128-n8:16:32:64-S128"
target triple = "x86_64-pc-linux-gnu"

%"struct.duckdb_hll::robj" = type { ptr }
%"struct.duckdb_hll::hllhdr" = type { [4 x i8], i8, [3 x i8], [8 x i8], [1 x i8] }

@.str = private unnamed_addr constant [5 x i8] c"HYLL\00", align 1

; Function Attrs: mustprogress nounwind uwtable
define void @_ZN10duckdb_hll13destroyObjectEPNS_4robjE(ptr noundef %0) #0 {
  %2 = alloca ptr, align 8
  store ptr %0, ptr %2, align 8, !tbaa !22
  %3 = load ptr, ptr %2, align 8, !tbaa !22
  call void @free(ptr noundef %3) #10
  ret void
}

; Function Attrs: mustprogress nounwind uwtable
define noundef ptr @_ZN10duckdb_hll12createObjectEPv(ptr noundef %0) #0 {
  %2 = alloca ptr, align 8
  %3 = alloca ptr, align 8
  store ptr %0, ptr %2, align 8, !tbaa !3
  call void @llvm.lifetime.start.p0(i64 8, ptr %3) #10
  %4 = call noalias ptr @malloc(i64 noundef 8) #11
  store ptr %4, ptr %3, align 8, !tbaa !22
  %5 = load ptr, ptr %2, align 8, !tbaa !3
  %6 = load ptr, ptr %3, align 8, !tbaa !22
  %7 = getelementptr inbounds nuw %"struct.duckdb_hll::robj", ptr %6, i32 0, i32 0
  store ptr %5, ptr %7, align 8, !tbaa !24
  %8 = load ptr, ptr %3, align 8, !tbaa !22
  call void @llvm.lifetime.end.p0(i64 8, ptr %3) #10
  ret ptr %8
}

; Function Attrs: inlinehint mustprogress nounwind uwtable
define internal noundef i32 @_ZN10duckdb_hllL11hllDenseSetEPhlh(ptr noundef %0, i64 noundef %1, i8 noundef zeroext %2) #3 {
  %4 = alloca i32, align 4
  %5 = alloca ptr, align 8
  %6 = alloca i64, align 8
  %7 = alloca i8, align 1
  %8 = alloca i8, align 1
  %9 = alloca ptr, align 8
  %10 = alloca i64, align 8
  %11 = alloca i64, align 8
  %12 = alloca i64, align 8
  %13 = alloca i64, align 8
  %14 = alloca i64, align 8
  %15 = alloca ptr, align 8
  %16 = alloca i64, align 8
  %17 = alloca i64, align 8
  %18 = alloca i64, align 8
  %19 = alloca i64, align 8
  %20 = alloca i32, align 4
  store ptr %0, ptr %5, align 8, !tbaa !11
  store i64 %1, ptr %6, align 8, !tbaa !9
  store i8 %2, ptr %7, align 1, !tbaa !15
  call void @llvm.lifetime.start.p0(i64 1, ptr %8) #10
  br label %21

21:                                               ; preds = %3
  call void @llvm.lifetime.start.p0(i64 8, ptr %9) #10
  %22 = load ptr, ptr %5, align 8, !tbaa !11
  store ptr %22, ptr %9, align 8, !tbaa !11
  call void @llvm.lifetime.start.p0(i64 8, ptr %10) #10
  %23 = load i64, ptr %6, align 8, !tbaa !9
  %24 = mul nsw i64 %23, 6
  %25 = sdiv i64 %24, 8
  store i64 %25, ptr %10, align 8, !tbaa !9
  call void @llvm.lifetime.start.p0(i64 8, ptr %11) #10
  %26 = load i64, ptr %6, align 8, !tbaa !9
  %27 = mul nsw i64 %26, 6
  %28 = and i64 %27, 7
  store i64 %28, ptr %11, align 8, !tbaa !9
  call void @llvm.lifetime.start.p0(i64 8, ptr %12) #10
  %29 = load i64, ptr %11, align 8, !tbaa !9
  %30 = sub i64 8, %29
  store i64 %30, ptr %12, align 8, !tbaa !9
  call void @llvm.lifetime.start.p0(i64 8, ptr %13) #10
  %31 = load ptr, ptr %9, align 8, !tbaa !11
  %32 = load i64, ptr %10, align 8, !tbaa !9
  %33 = getelementptr inbounds nuw i8, ptr %31, i64 %32
  %34 = load i8, ptr %33, align 1, !tbaa !15
  %35 = zext i8 %34 to i64
  store i64 %35, ptr %13, align 8, !tbaa !9
  call void @llvm.lifetime.start.p0(i64 8, ptr %14) #10
  %36 = load ptr, ptr %9, align 8, !tbaa !11
  %37 = load i64, ptr %10, align 8, !tbaa !9
  %38 = add i64 %37, 1
  %39 = getelementptr inbounds nuw i8, ptr %36, i64 %38
  %40 = load i8, ptr %39, align 1, !tbaa !15
  %41 = zext i8 %40 to i64
  store i64 %41, ptr %14, align 8, !tbaa !9
  %42 = load i64, ptr %13, align 8, !tbaa !9
  %43 = load i64, ptr %11, align 8, !tbaa !9
  %44 = lshr i64 %42, %43
  %45 = load i64, ptr %14, align 8, !tbaa !9
  %46 = load i64, ptr %12, align 8, !tbaa !9
  %47 = shl i64 %45, %46
  %48 = or i64 %44, %47
  %49 = and i64 %48, 63
  %50 = trunc i64 %49 to i8
  store i8 %50, ptr %8, align 1, !tbaa !15
  call void @llvm.lifetime.end.p0(i64 8, ptr %14) #10
  call void @llvm.lifetime.end.p0(i64 8, ptr %13) #10
  call void @llvm.lifetime.end.p0(i64 8, ptr %12) #10
  call void @llvm.lifetime.end.p0(i64 8, ptr %11) #10
  call void @llvm.lifetime.end.p0(i64 8, ptr %10) #10
  call void @llvm.lifetime.end.p0(i64 8, ptr %9) #10
  br label %51

51:                                               ; preds = %21
  br label %52

52:                                               ; preds = %51
  %53 = load i8, ptr %7, align 1, !tbaa !15
  %54 = zext i8 %53 to i32
  %55 = load i8, ptr %8, align 1, !tbaa !15
  %56 = zext i8 %55 to i32
  %57 = icmp sgt i32 %54, %56
  br i1 %57, label %58, label %117

58:                                               ; preds = %52
  br label %59

59:                                               ; preds = %58
  call void @llvm.lifetime.start.p0(i64 8, ptr %15) #10
  %60 = load ptr, ptr %5, align 8, !tbaa !11
  store ptr %60, ptr %15, align 8, !tbaa !11
  call void @llvm.lifetime.start.p0(i64 8, ptr %16) #10
  %61 = load i64, ptr %6, align 8, !tbaa !9
  %62 = mul nsw i64 %61, 6
  %63 = sdiv i64 %62, 8
  store i64 %63, ptr %16, align 8, !tbaa !9
  call void @llvm.lifetime.start.p0(i64 8, ptr %17) #10
  %64 = load i64, ptr %6, align 8, !tbaa !9
  %65 = mul nsw i64 %64, 6
  %66 = and i64 %65, 7
  store i64 %66, ptr %17, align 8, !tbaa !9
  call void @llvm.lifetime.start.p0(i64 8, ptr %18) #10
  %67 = load i64, ptr %17, align 8, !tbaa !9
  %68 = sub i64 8, %67
  store i64 %68, ptr %18, align 8, !tbaa !9
  call void @llvm.lifetime.start.p0(i64 8, ptr %19) #10
  %69 = load i8, ptr %7, align 1, !tbaa !15
  %70 = zext i8 %69 to i64
  store i64 %70, ptr %19, align 8, !tbaa !9
  %71 = load i64, ptr %17, align 8, !tbaa !9
  %72 = trunc i64 %71 to i32
  %73 = shl i32 63, %72
  %74 = xor i32 %73, -1
  %75 = load ptr, ptr %15, align 8, !tbaa !11
  %76 = load i64, ptr %16, align 8, !tbaa !9
  %77 = getelementptr inbounds nuw i8, ptr %75, i64 %76
  %78 = load i8, ptr %77, align 1, !tbaa !15
  %79 = zext i8 %78 to i32
  %80 = and i32 %79, %74
  %81 = trunc i32 %80 to i8
  store i8 %81, ptr %77, align 1, !tbaa !15
  %82 = load i64, ptr %19, align 8, !tbaa !9
  %83 = load i64, ptr %17, align 8, !tbaa !9
  %84 = shl i64 %82, %83
  %85 = load ptr, ptr %15, align 8, !tbaa !11
  %86 = load i64, ptr %16, align 8, !tbaa !9
  %87 = getelementptr inbounds nuw i8, ptr %85, i64 %86
  %88 = load i8, ptr %87, align 1, !tbaa !15
  %89 = zext i8 %88 to i64
  %90 = or i64 %89, %84
  %91 = trunc i64 %90 to i8
  store i8 %91, ptr %87, align 1, !tbaa !15
  %92 = load i64, ptr %18, align 8, !tbaa !9
  %93 = trunc i64 %92 to i32
  %94 = ashr i32 63, %93
  %95 = xor i32 %94, -1
  %96 = load ptr, ptr %15, align 8, !tbaa !11
  %97 = load i64, ptr %16, align 8, !tbaa !9
  %98 = add i64 %97, 1
  %99 = getelementptr inbounds nuw i8, ptr %96, i64 %98
  %100 = load i8, ptr %99, align 1, !tbaa !15
  %101 = zext i8 %100 to i32
  %102 = and i32 %101, %95
  %103 = trunc i32 %102 to i8
  store i8 %103, ptr %99, align 1, !tbaa !15
  %104 = load i64, ptr %19, align 8, !tbaa !9
  %105 = load i64, ptr %18, align 8, !tbaa !9
  %106 = lshr i64 %104, %105
  %107 = load ptr, ptr %15, align 8, !tbaa !11
  %108 = load i64, ptr %16, align 8, !tbaa !9
  %109 = add i64 %108, 1
  %110 = getelementptr inbounds nuw i8, ptr %107, i64 %109
  %111 = load i8, ptr %110, align 1, !tbaa !15
  %112 = zext i8 %111 to i64
  %113 = or i64 %112, %106
  %114 = trunc i64 %113 to i8
  store i8 %114, ptr %110, align 1, !tbaa !15
  call void @llvm.lifetime.end.p0(i64 8, ptr %19) #10
  call void @llvm.lifetime.end.p0(i64 8, ptr %18) #10
  call void @llvm.lifetime.end.p0(i64 8, ptr %17) #10
  call void @llvm.lifetime.end.p0(i64 8, ptr %16) #10
  call void @llvm.lifetime.end.p0(i64 8, ptr %15) #10
  br label %115

115:                                              ; preds = %59
  br label %116

116:                                              ; preds = %115
  store i32 1, ptr %4, align 4
  store i32 1, ptr %20, align 4
  br label %118

117:                                              ; preds = %52
  store i32 0, ptr %4, align 4
  store i32 1, ptr %20, align 4
  br label %118

118:                                              ; preds = %117, %116
  call void @llvm.lifetime.end.p0(i64 1, ptr %8) #10
  %119 = load i32, ptr %4, align 4
  ret i32 %119
}

; Function Attrs: mustprogress uwtable
define void @_ZN10duckdb_hll11hll_destroyEPNS_4robjE(ptr noundef %0) #2 {
  %2 = alloca ptr, align 8
  store ptr %0, ptr %2, align 8, !tbaa !22
  %3 = load ptr, ptr %2, align 8, !tbaa !22
  %4 = icmp ne ptr %3, null
  br i1 %4, label %6, label %5

5:                                                ; preds = %1
  br label %11

6:                                                ; preds = %1
  %7 = load ptr, ptr %2, align 8, !tbaa !22
  %8 = getelementptr inbounds nuw %"struct.duckdb_hll::robj", ptr %7, i32 0, i32 0
  %9 = load ptr, ptr %8, align 8, !tbaa !24
  call void @_ZN10duckdb_hll7sdsfreeEPc(ptr noundef %9)
  %10 = load ptr, ptr %2, align 8, !tbaa !22
  call void @_ZN10duckdb_hll13destroyObjectEPNS_4robjE(ptr noundef %10)
  br label %11

11:                                               ; preds = %6, %5
  ret void
}

; Function Attrs: mustprogress uwtable
define noundef ptr @_ZN10duckdb_hll10hll_createEv() #2 {
  %1 = alloca ptr, align 8
  %2 = alloca ptr, align 8
  %3 = alloca ptr, align 8
  %4 = alloca ptr, align 8
  %5 = alloca i32, align 4
  %6 = alloca i32, align 4
  %7 = alloca i32, align 4
  %8 = alloca i32, align 4
  call void @llvm.lifetime.start.p0(i64 8, ptr %1) #10
  call void @llvm.lifetime.start.p0(i64 8, ptr %2) #10
  call void @llvm.lifetime.start.p0(i64 8, ptr %3) #10
  call void @llvm.lifetime.start.p0(i64 8, ptr %4) #10
  call void @llvm.lifetime.start.p0(i64 4, ptr %5) #10
  store i32 19, ptr %5, align 4, !tbaa !7
  call void @llvm.lifetime.start.p0(i64 4, ptr %6) #10
  store i32 4096, ptr %6, align 4, !tbaa !7
  %9 = load i32, ptr %5, align 4, !tbaa !7
  %10 = sext i32 %9 to i64
  %11 = call noundef ptr @_ZN10duckdb_hll9sdsnewlenEPKvm(ptr noundef null, i64 noundef %10)
  store ptr %11, ptr %3, align 8, !tbaa !11
  %12 = load ptr, ptr %3, align 8, !tbaa !11
  %13 = getelementptr inbounds nuw i8, ptr %12, i64 17
  store ptr %13, ptr %4, align 8, !tbaa !11
  br label %14

14:                                               ; preds = %38, %0
  %15 = load i32, ptr %6, align 4, !tbaa !7
  %16 = icmp ne i32 %15, 0
  br i1 %16, label %17, label %44

17:                                               ; preds = %14
  call void @llvm.lifetime.start.p0(i64 4, ptr %7) #10
  store i32 16384, ptr %7, align 4, !tbaa !7
  %18 = load i32, ptr %7, align 4, !tbaa !7
  %19 = load i32, ptr %6, align 4, !tbaa !7
  %20 = icmp sgt i32 %18, %19
  br i1 %20, label %21, label %23

21:                                               ; preds = %17
  %22 = load i32, ptr %6, align 4, !tbaa !7
  store i32 %22, ptr %7, align 4, !tbaa !7
  br label %23

23:                                               ; preds = %21, %17
  br label %24

24:                                               ; preds = %23
  call void @llvm.lifetime.start.p0(i64 4, ptr %8) #10
  %25 = load i32, ptr %7, align 4, !tbaa !7
  %26 = sub nsw i32 %25, 1
  store i32 %26, ptr %8, align 4, !tbaa !7
  %27 = load i32, ptr %8, align 4, !tbaa !7
  %28 = ashr i32 %27, 8
  %29 = or i32 %28, 64
  %30 = trunc i32 %29 to i8
  %31 = load ptr, ptr %4, align 8, !tbaa !11
  store i8 %30, ptr %31, align 1, !tbaa !15
  %32 = load i32, ptr %8, align 4, !tbaa !7
  %33 = and i32 %32, 255
  %34 = trunc i32 %33 to i8
  %35 = load ptr, ptr %4, align 8, !tbaa !11
  %36 = getelementptr inbounds i8, ptr %35, i64 1
  store i8 %34, ptr %36, align 1, !tbaa !15
  call void @llvm.lifetime.end.p0(i64 4, ptr %8) #10
  br label %37

37:                                               ; preds = %24
  br label %38

38:                                               ; preds = %37
  %39 = load ptr, ptr %4, align 8, !tbaa !11
  %40 = getelementptr inbounds i8, ptr %39, i64 2
  store ptr %40, ptr %4, align 8, !tbaa !11
  %41 = load i32, ptr %7, align 4, !tbaa !7
  %42 = load i32, ptr %6, align 4, !tbaa !7
  %43 = sub nsw i32 %42, %41
  store i32 %43, ptr %6, align 4, !tbaa !7
  call void @llvm.lifetime.end.p0(i64 4, ptr %7) #10
  br label %14, !llvm.loop !54

44:                                               ; preds = %14
  %45 = load ptr, ptr %3, align 8, !tbaa !11
  %46 = call noundef ptr @_ZN10duckdb_hll12createObjectEPv(ptr noundef %45)
  store ptr %46, ptr %1, align 8, !tbaa !22
  %47 = load ptr, ptr %1, align 8, !tbaa !22
  %48 = getelementptr inbounds nuw %"struct.duckdb_hll::robj", ptr %47, i32 0, i32 0
  %49 = load ptr, ptr %48, align 8, !tbaa !24
  store ptr %49, ptr %2, align 8, !tbaa !26
  %50 = load ptr, ptr %2, align 8, !tbaa !26
  %51 = getelementptr inbounds nuw %"struct.duckdb_hll::hllhdr", ptr %50, i32 0, i32 0
  %52 = getelementptr inbounds [4 x i8], ptr %51, i64 0, i64 0
  call void @llvm.memcpy.p0.p0.i64(ptr align 1 %52, ptr align 1 @.str, i64 4, i1 false)
  %53 = load ptr, ptr %2, align 8, !tbaa !26
  %54 = getelementptr inbounds nuw %"struct.duckdb_hll::hllhdr", ptr %53, i32 0, i32 1
  store i8 1, ptr %54, align 1, !tbaa !28
  %55 = load ptr, ptr %1, align 8, !tbaa !22
  call void @llvm.lifetime.end.p0(i64 4, ptr %6) #10
  call void @llvm.lifetime.end.p0(i64 4, ptr %5) #10
  call void @llvm.lifetime.end.p0(i64 8, ptr %4) #10
  call void @llvm.lifetime.end.p0(i64 8, ptr %3) #10
  call void @llvm.lifetime.end.p0(i64 8, ptr %2) #10
  call void @llvm.lifetime.end.p0(i64 8, ptr %1) #10
  ret ptr %55
}

; Function Attrs: mustprogress uwtable
define noundef ptr @_ZN10duckdb_hll9hll_mergeEPPNS_4robjEm(ptr noundef %0, i64 noundef %1) #2 {
  %3 = alloca ptr, align 8
  %4 = alloca ptr, align 8
  %5 = alloca i64, align 8
  %6 = alloca [4096 x i8], align 16
  %7 = alloca ptr, align 8
  %8 = alloca i64, align 8
  %9 = alloca i32, align 4
  %10 = alloca ptr, align 8
  %11 = alloca i32, align 4
  %12 = alloca ptr, align 8
  store ptr %0, ptr %4, align 8, !tbaa !55
  store i64 %1, ptr %5, align 8, !tbaa !9
  call void @llvm.lifetime.start.p0(i64 4096, ptr %6) #10
  call void @llvm.lifetime.start.p0(i64 8, ptr %7) #10
  call void @llvm.lifetime.start.p0(i64 8, ptr %8) #10
  call void @llvm.lifetime.start.p0(i64 4, ptr %9) #10
  store i32 0, ptr %9, align 4, !tbaa !7
  %13 = getelementptr inbounds [4096 x i8], ptr %6, i64 0, i64 0
  call void @llvm.memset.p0.i64(ptr align 16 %13, i8 0, i64 4096, i1 false)
  store i64 0, ptr %8, align 8, !tbaa !9
  br label %14

14:                                               ; preds = %46, %2
  %15 = load i64, ptr %8, align 8, !tbaa !9
  %16 = load i64, ptr %5, align 8, !tbaa !9
  %17 = icmp ult i64 %15, %16
  br i1 %17, label %18, label %49

18:                                               ; preds = %14
  call void @llvm.lifetime.start.p0(i64 8, ptr %10) #10
  %19 = load ptr, ptr %4, align 8, !tbaa !55
  %20 = load i64, ptr %8, align 8, !tbaa !9
  %21 = getelementptr inbounds nuw ptr, ptr %19, i64 %20
  %22 = load ptr, ptr %21, align 8, !tbaa !22
  store ptr %22, ptr %10, align 8, !tbaa !22
  %23 = load ptr, ptr %10, align 8, !tbaa !22
  %24 = icmp eq ptr %23, null
  br i1 %24, label %25, label %26

25:                                               ; preds = %18
  store i32 4, ptr %11, align 4
  br label %43

26:                                               ; preds = %18
  %27 = load ptr, ptr %10, align 8, !tbaa !22
  %28 = getelementptr inbounds nuw %"struct.duckdb_hll::robj", ptr %27, i32 0, i32 0
  %29 = load ptr, ptr %28, align 8, !tbaa !24
  store ptr %29, ptr %7, align 8, !tbaa !26
  %30 = load ptr, ptr %7, align 8, !tbaa !26
  %31 = getelementptr inbounds nuw %"struct.duckdb_hll::hllhdr", ptr %30, i32 0, i32 1
  %32 = load i8, ptr %31, align 1, !tbaa !28
  %33 = zext i8 %32 to i32
  %34 = icmp eq i32 %33, 0
  br i1 %34, label %35, label %36

35:                                               ; preds = %26
  store i32 1, ptr %9, align 4, !tbaa !7
  br label %36

36:                                               ; preds = %35, %26
  %37 = getelementptr inbounds [4096 x i8], ptr %6, i64 0, i64 0
  %38 = load ptr, ptr %10, align 8, !tbaa !22
  %39 = call noundef i32 @_ZN10duckdb_hll8hllMergeEPhPNS_4robjE(ptr noundef %37, ptr noundef %38)
  %40 = icmp eq i32 %39, -1
  br i1 %40, label %41, label %42

41:                                               ; preds = %36
  store ptr null, ptr %3, align 8
  store i32 1, ptr %11, align 4
  br label %43

42:                                               ; preds = %36
  store i32 0, ptr %11, align 4
  br label %43

43:                                               ; preds = %42, %41, %25
  call void @llvm.lifetime.end.p0(i64 8, ptr %10) #10
  %44 = load i32, ptr %11, align 4
  switch i32 %44, label %106 [
    i32 0, label %45
    i32 4, label %46
  ]

45:                                               ; preds = %43
  br label %46

46:                                               ; preds = %45, %43
  %47 = load i64, ptr %8, align 8, !tbaa !9
  %48 = add i64 %47, 1
  store i64 %48, ptr %8, align 8, !tbaa !9
  br label %14, !llvm.loop !57

49:                                               ; preds = %14
  call void @llvm.lifetime.start.p0(i64 8, ptr %12) #10
  %50 = call noundef ptr @_ZN10duckdb_hll10hll_createEv()
  store ptr %50, ptr %12, align 8, !tbaa !22
  %51 = load ptr, ptr %12, align 8, !tbaa !22
  %52 = icmp ne ptr %51, null
  br i1 %52, label %54, label %53

53:                                               ; preds = %49
  store ptr null, ptr %3, align 8
  store i32 1, ptr %11, align 4
  br label %105

54:                                               ; preds = %49
  %55 = load i32, ptr %9, align 4, !tbaa !7
  %56 = icmp ne i32 %55, 0
  br i1 %56, label %57, label %63

57:                                               ; preds = %54
  %58 = load ptr, ptr %12, align 8, !tbaa !22
  %59 = call noundef i32 @_ZN10duckdb_hll16hllSparseToDenseEPNS_4robjE(ptr noundef %58)
  %60 = icmp eq i32 %59, -1
  br i1 %60, label %61, label %63

61:                                               ; preds = %57
  %62 = load ptr, ptr %12, align 8, !tbaa !22
  call void @_ZN10duckdb_hll11hll_destroyEPNS_4robjE(ptr noundef %62)
  store ptr null, ptr %3, align 8
  store i32 1, ptr %11, align 4
  br label %105

63:                                               ; preds = %57, %54
  store i64 0, ptr %8, align 8, !tbaa !9
  br label %64

64:                                               ; preds = %100, %63
  %65 = load i64, ptr %8, align 8, !tbaa !9
  %66 = icmp ult i64 %65, 4096
  br i1 %66, label %67, label %103

67:                                               ; preds = %64
  %68 = load i64, ptr %8, align 8, !tbaa !9
  %69 = getelementptr inbounds nuw [4096 x i8], ptr %6, i64 0, i64 %68
  %70 = load i8, ptr %69, align 1, !tbaa !15
  %71 = zext i8 %70 to i32
  %72 = icmp eq i32 %71, 0
  br i1 %72, label %73, label %74

73:                                               ; preds = %67
  br label %100

74:                                               ; preds = %67
  %75 = load ptr, ptr %12, align 8, !tbaa !22
  %76 = getelementptr inbounds nuw %"struct.duckdb_hll::robj", ptr %75, i32 0, i32 0
  %77 = load ptr, ptr %76, align 8, !tbaa !24
  store ptr %77, ptr %7, align 8, !tbaa !26
  %78 = load ptr, ptr %7, align 8, !tbaa !26
  %79 = getelementptr inbounds nuw %"struct.duckdb_hll::hllhdr", ptr %78, i32 0, i32 1
  %80 = load i8, ptr %79, align 1, !tbaa !28
  %81 = zext i8 %80 to i32
  switch i32 %81, label %99 [
    i32 0, label %82
    i32 1, label %92
  ]

82:                                               ; preds = %74
  %83 = load ptr, ptr %7, align 8, !tbaa !26
  %84 = getelementptr inbounds nuw %"struct.duckdb_hll::hllhdr", ptr %83, i32 0, i32 4
  %85 = getelementptr inbounds [1 x i8], ptr %84, i64 0, i64 0
  %86 = getelementptr inbounds i8, ptr %85, i64 1
  %87 = load i64, ptr %8, align 8, !tbaa !9
  %88 = load i64, ptr %8, align 8, !tbaa !9
  %89 = getelementptr inbounds nuw [4096 x i8], ptr %6, i64 0, i64 %88
  %90 = load i8, ptr %89, align 1, !tbaa !15
  %91 = call noundef i32 @_ZN10duckdb_hllL11hllDenseSetEPhlh(ptr noundef %86, i64 noundef %87, i8 noundef zeroext %90)
  br label %99

92:                                               ; preds = %74
  %93 = load ptr, ptr %12, align 8, !tbaa !22
  %94 = load i64, ptr %8, align 8, !tbaa !9
  %95 = load i64, ptr %8, align 8, !tbaa !9
  %96 = getelementptr inbounds nuw [4096 x i8], ptr %6, i64 0, i64 %95
  %97 = load i8, ptr %96, align 1, !tbaa !15
  %98 = call noundef i32 @_ZN10duckdb_hll12hllSparseSetEPNS_4robjElh(ptr noundef %93, i64 noundef %94, i8 noundef zeroext %97)
  br label %99

99:                                               ; preds = %74, %92, %82
  br label %100

100:                                              ; preds = %99, %73
  %101 = load i64, ptr %8, align 8, !tbaa !9
  %102 = add i64 %101, 1
  store i64 %102, ptr %8, align 8, !tbaa !9
  br label %64, !llvm.loop !58

103:                                              ; preds = %64
  %104 = load ptr, ptr %12, align 8, !tbaa !22
  store ptr %104, ptr %3, align 8
  store i32 1, ptr %11, align 4
  br label %105

105:                                              ; preds = %103, %61, %53
  call void @llvm.lifetime.end.p0(i64 8, ptr %12) #10
  br label %106

106:                                              ; preds = %105, %43
  call void @llvm.lifetime.end.p0(i64 4, ptr %9) #10
  call void @llvm.lifetime.end.p0(i64 8, ptr %8) #10
  call void @llvm.lifetime.end.p0(i64 8, ptr %7) #10
  call void @llvm.lifetime.end.p0(i64 4096, ptr %6) #10
  %107 = load ptr, ptr %3, align 8
  ret ptr %107
}