; Function Attrs: mustprogress uwtable
define noalias noundef ptr @_ZN10duckdb_hll9hll_mergeEPPNS_4robjEm(ptr noundef readonly captures(none) %0, i64 noundef %1) local_unnamed_addr #3 {
  %3 = alloca [4096 x i8], align 16
  call void @llvm.lifetime.start.p0(i64 4096, ptr nonnull %3) #21
  call void @llvm.memset.p0.i64(ptr noundef nonnull align 16 dereferenceable(4096) %3, i8 0, i64 4096, i1 false)
  %.not = icmp eq i64 %1, 0
  br i1 %.not, label %._crit_edge, label %.lr.ph

.lr.ph:                                           ; preds = %2, %14
  %.02742 = phi i32 [ %.128.ph, %14 ], [ 0, %2 ]
  %.03041 = phi i64 [ %15, %14 ], [ 0, %2 ]
  %4 = getelementptr inbounds nuw ptr, ptr %0, i64 %.03041
  %5 = load ptr, ptr %4, align 8, !tbaa !40
  %6 = icmp eq ptr %5, null
  br i1 %6, label %14, label %7

7:                                                ; preds = %.lr.ph
  %8 = load ptr, ptr %5, align 8, !tbaa !14
  %9 = getelementptr inbounds nuw i8, ptr %8, i64 4
  %10 = load i8, ptr %9, align 1, !tbaa !26
  %11 = icmp eq i8 %10, 0
  %spec.select = select i1 %11, i32 1, i32 %.02742
  %12 = call noundef i32 @_ZN10duckdb_hll8hllMergeEPhPNS_4robjE(ptr noundef nonnull %3, ptr noundef nonnull %5)
  %13 = icmp eq i32 %12, -1
  br i1 %13, label %.loopexit, label %14

14:                                               ; preds = %.lr.ph, %7
  %.128.ph = phi i32 [ %spec.select, %7 ], [ %.02742, %.lr.ph ]
  %15 = add nuw i64 %.03041, 1
  %exitcond.not = icmp eq i64 %15, %1
  br i1 %exitcond.not, label %._crit_edge.loopexit, label %.lr.ph, !llvm.loop !42

._crit_edge.loopexit:                             ; preds = %14
  %16 = icmp eq i32 %.128.ph, 0
  br label %._crit_edge

._crit_edge:                                      ; preds = %._crit_edge.loopexit, %2
  %.027.lcssa = phi i1 [ true, %2 ], [ %16, %._crit_edge.loopexit ]
  %17 = tail call noundef ptr @_ZN10duckdb_hll9sdsnewlenEPKvm(ptr noundef null, i64 noundef 19)
  %18 = getelementptr inbounds nuw i8, ptr %17, i64 17
  store i8 79, ptr %18, align 1, !tbaa !9
  %19 = getelementptr inbounds nuw i8, ptr %17, i64 18
  store i8 -1, ptr %19, align 1, !tbaa !9
  %20 = tail call noalias noundef dereferenceable_or_null(8) ptr @malloc(i64 noundef 8) #22
  store ptr %17, ptr %20, align 8, !tbaa !14
  store i32 1280072008, ptr %17, align 1
  %21 = getelementptr inbounds nuw i8, ptr %17, i64 4
  store i8 1, ptr %21, align 1, !tbaa !26
  br i1 %.027.lcssa, label %.preheader, label %22

.preheader:                                       ; preds = %22, %._crit_edge
  br label %26

22:                                               ; preds = %._crit_edge
  %23 = tail call noundef i32 @_ZN10duckdb_hll16hllSparseToDenseEPNS_4robjE(ptr noundef nonnull %20)
  %24 = icmp eq i32 %23, -1
  br i1 %24, label %_ZN10duckdb_hll11hll_destroyEPNS_4robjE.exit, label %.preheader

_ZN10duckdb_hll11hll_destroyEPNS_4robjE.exit:     ; preds = %22
  %25 = load ptr, ptr %20, align 8, !tbaa !14
  tail call void @_ZN10duckdb_hll7sdsfreeEPc(ptr noundef %25)
  tail call void @free(ptr noundef nonnull %20) #21
  br label %.loopexit

26:                                               ; preds = %.preheader, %_ZN10duckdb_hllL11hllDenseSetEPhlh.exit
  %.13143 = phi i64 [ %70, %_ZN10duckdb_hllL11hllDenseSetEPhlh.exit ], [ 0, %.preheader ]
  %27 = getelementptr inbounds nuw [4096 x i8], ptr %3, i64 0, i64 %.13143
  %28 = load i8, ptr %27, align 1, !tbaa !9
  %29 = icmp eq i8 %28, 0
  br i1 %29, label %_ZN10duckdb_hllL11hllDenseSetEPhlh.exit, label %30

30:                                               ; preds = %26
  %31 = load ptr, ptr %20, align 8, !tbaa !14
  %32 = getelementptr inbounds nuw i8, ptr %31, i64 4
  %33 = load i8, ptr %32, align 1, !tbaa !26
  switch i8 %33, label %_ZN10duckdb_hllL11hllDenseSetEPhlh.exit [
    i8 0, label %34
    i8 1, label %68
  ]

34:                                               ; preds = %30
  %35 = getelementptr inbounds nuw i8, ptr %31, i64 17
  %36 = mul nuw nsw i64 %.13143, 6
  %.zext = lshr i64 %36, 3
  %37 = and i64 %36, 6
  %38 = sub nuw nsw i64 8, %37
  %39 = getelementptr inbounds nuw i8, ptr %35, i64 %.zext
  %40 = load i8, ptr %39, align 1, !tbaa !9
  %41 = zext i8 %40 to i64
  %42 = getelementptr i8, ptr %39, i64 1
  %43 = load i8, ptr %42, align 1, !tbaa !9
  %44 = zext i8 %43 to i64
  %45 = lshr i64 %41, %37
  %46 = shl nuw nsw i64 %44, %38
  %47 = or i64 %46, %45
  %48 = trunc nuw nsw i64 %47 to i32
  %49 = and i32 %48, 63
  %50 = zext i8 %28 to i32
  %51 = icmp samesign ult i32 %49, %50
  br i1 %51, label %52, label %_ZN10duckdb_hllL11hllDenseSetEPhlh.exit

52:                                               ; preds = %34
  %53 = zext i8 %28 to i64
  %54 = trunc nuw nsw i64 %37 to i8
  %55 = shl i8 63, %54
  %56 = xor i8 %55, -1
  %57 = and i8 %40, %56
  %58 = shl nuw nsw i64 %53, %37
  %59 = trunc i64 %58 to i8
  %60 = or i8 %57, %59
  store i8 %60, ptr %39, align 1, !tbaa !9
  %61 = trunc nuw nsw i64 %38 to i16
  %62 = ashr i16 -64, %61
  %63 = trunc nsw i16 %62 to i8
  %64 = and i8 %43, %63
  %65 = lshr i64 %53, %38
  %66 = trunc nuw nsw i64 %65 to i8
  %67 = or i8 %64, %66
  store i8 %67, ptr %42, align 1, !tbaa !9
  br label %_ZN10duckdb_hllL11hllDenseSetEPhlh.exit

68:                                               ; preds = %30
  %69 = tail call noundef i32 @_ZN10duckdb_hll12hllSparseSetEPNS_4robjElh(ptr noundef nonnull %20, i64 noundef %.13143, i8 noundef zeroext %28)
  br label %_ZN10duckdb_hllL11hllDenseSetEPhlh.exit

_ZN10duckdb_hllL11hllDenseSetEPhlh.exit:          ; preds = %52, %34, %30, %68, %26
  %70 = add nuw nsw i64 %.13143, 1
  %exitcond45.not = icmp eq i64 %70, 4096
  br i1 %exitcond45.not, label %.loopexit, label %26, !llvm.loop !43

.loopexit:                                        ; preds = %7, %_ZN10duckdb_hllL11hllDenseSetEPhlh.exit, %_ZN10duckdb_hll11hll_destroyEPNS_4robjE.exit
  %.2 = phi ptr [ null, %_ZN10duckdb_hll11hll_destroyEPNS_4robjE.exit ], [ %20, %_ZN10duckdb_hllL11hllDenseSetEPhlh.exit ], [ null, %7 ]
  call void @llvm.lifetime.end.p0(i64 4096, ptr nonnull %3) #21
  ret ptr %.2
}